(dp1
S'output'
p2
S"<type 'exceptions.NameError'> name 'national_number' is not defined"
p3
sS'layer'
p4
S'C:\\Users\\Tom\\Development\\web2py\\applications\\YEIRegistratieversie2\\models\\db.py'
p5
sS'code'
p6
S'# -*- coding: utf-8 -*-\nimport datetime\n#########################################################################\n## This scaffolding model makes your app work on Google App Engine too\n## File is released under public domain and you can use without limitations\n#########################################################################\n\n## if SSL/HTTPS is properly configured and you want all HTTP requests to\n## be redirected to HTTPS, uncomment the line below:\n# request.requires_https()\n\n## app configuration made easy. Look inside private/appconfig.ini\nfrom gluon.contrib.appconfig import AppConfig\n## once in production, remove reload=True to gain full speed\nmyconf = AppConfig(reload=True)\n\n\nif not request.env.web2py_runtime_gae:\n    ## if NOT running on Google App Engine use SQLite or other DB\n    db = DAL(myconf.take(\'db.uri\'), pool_size=myconf.take(\'db.pool_size\', cast=int), check_reserved=[\'all\'])\nelse:\n    ## connect to Google BigTable (optional \'google:datastore://namespace\')\n    db = DAL(\'google:datastore+ndb\')\n    ## store sessions and tickets there\n    session.connect(request, response, db=db)\n    ## or store session in Memcache, Redis, etc.\n    ## from gluon.contrib.memdb import MEMDB\n    ## from google.appengine.api.memcache import Client\n    ## session.connect(request, response, db = MEMDB(Client()))\n\n## by default give a view/generic.extension to all actions from localhost\n## none otherwise. a pattern can be \'controller/function.extension\'\nresponse.generic_patterns = [\'*\'] if request.is_local else []\n## choose a style for forms\nresponse.formstyle = myconf.take(\'forms.formstyle\')  # or \'bootstrap3_stacked\' or \'bootstrap2\' or other\nresponse.form_label_separator = myconf.take(\'forms.separator\')\n\n\n## (optional) optimize handling of static files\n# response.optimize_css = \'concat,minify,inline\'\n# response.optimize_js = \'concat,minify,inline\'\n## (optional) static assets folder versioning\n# response.static_version = \'0.0.0\'\n#########################################################################\n## Here is sample code if you need for\n## - email capabilities\n## - authentication (registration, login, logout, ... )\n## - authorization (role based authorization)\n## - services (xml, csv, json, xmlrpc, jsonrpc, amf, rss)\n## - old style crud actions\n## (more options discussed in gluon/tools.py)\n#########################################################################\n\nfrom gluon.tools import Auth, Service, PluginManager\n\nauth = Auth(db)\nservice = Service()\nplugins = PluginManager()\n\n## create all tables needed by auth if not custom tables\nauth.define_tables(username=False, signature=False)\n\n\n## configure email\nmail = auth.settings.mailer\nmail.settings.server = \'logging\' if request.is_local else myconf.take(\'smtp.server\')\nmail.settings.sender = myconf.take(\'smtp.sender\')\nmail.settings.login = myconf.take(\'smtp.login\')\n\n## configure auth policy\nauth.settings.registration_requires_verification = False\nauth.settings.registration_requires_approval = False\nauth.settings.reset_password_requires_verification = True\n\n#########################################################################\n## Define your tables below (or better in another model file) for example\n##\n## >>> db.define_table(\'mytable\',Field(\'myfield\',\'string\'))\n##\n## Fields can be \'string\',\'text\',\'password\',\'integer\',\'double\',\'boolean\'\n##       \'date\',\'time\',\'datetime\',\'blob\',\'upload\', \'reference TABLENAME\'\n## There is an implicit \'id integer autoincrement\' field\n## Consult manual for more options, validators, etc.\n##\n## More API examples for controllers:\n##\n## >>> db.mytable.insert(myfield=\'value\')\n## >>> rows=db(db.mytable.myfield==\'value\').select(db.mytable.ALL)\n## >>> for row in rows: print row.id, row.myfield\n#########################################################################\n\n## after defining tables, uncomment below to enable auditing\n# auth.enable_record_versioning(db)\n\n#########################################################################\n#defining some sets i need\nyears = []\nguest_errors = None\nguest_errors = []\n\ntalk_errors = None\ntalk_errors = []\n\ncompetence_errors = None\ncompetence_errors = []\n#########################################################################\n\n#####some methods i use#################################################\ndef makeYears():\n\ti = 0\n\tyear = datetime.date.today().year\n\twhile i < 100:\n\t\ti = i + 1\n\t\tyears.append(year)\n\t\tyear = year - 1\n######################################################################\n## validator voor rijksregisternummer ################################\ndef checkNationalNumber(national_number):\n   isRijksRegisterNummer = False\n   rr = national_number\n\n   if(len(rr) == 11) :\n      if(int(rr[0][0]) == 0):\n       rr = \'\'.join((\'2\',rr))\n      else :\n       rr = rr\n\n      checkDigit = int(rr[-2:])\n      rr = rr[:-2]\n      rr_rest97 = int(float(rr) / 97.0)\n\n      rr_maal97 = rr_rest97 * 97\n\n      testcijfer = int(rr) - rr_maal97\n\n      if ((97 - testcijfer) == checkDigit):\n            isRijksRegisterNummer = True\n            return isRijksRegisterNummer\n      else :\n            return isRijksRegisterNummer\n\n   else:\n      return isRijksRegisterNummer\n\nclass IS_NATIONALNUMBER():\n    def __init__(self,national_number, error_message="Foutief nummer"):\n        self.national_number = national_number\n        self.error_message = error_message\n\n    def __call__(self, value):\n        error = None\n        value = checkNationalNumber(value)\n        if not value == True :\n            error = self.error_message\n        return (value, error)\n#####################################################################\n\n\n\nmakeYears()\n\ndb.define_table(\'guest\',\n\tField(\'first_name\',notnull=True,label=T(\'Firstname\')),\n\tField(\'family_name\',notnull=True,label=T(\'Familyname\')),\n\tField(\'birth_year\',\'integer\',notnull=True,label=T(\'Birth year\')),\n\tField(\'sex\',notnull=True,label=T(\'Sex\')),\n\tField(\'national_number\',notnull=True,label=T(\'National number\')),\n    Field(\'gsmnummer\',label=T(\'GSM\')),\n    Field(\'email\',notnull=False,label=T(\'Email\')),\n\tField(\'registration_date\',\'date\',default=request.now,label=T(\'Registration date\')),\n\tField(\'registrator\',\'reference auth_user\',default=auth.user_id,label=T(\'Registered by\')),\n\tField(\'age\',compute=lambda r: (datetime.datetime.now().year) - int(r[\'birth_year\']),label=T(\'Age\')),\n\tformat = \'%(first_name)s %(family_name)s\')\ndb.guest.birth_year.requires=IS_IN_SET(years,zero=T(\'Choose One\'),error_message = T(\'Choose a year from the list\'))\ndb.guest.sex.requires=IS_IN_SET(["man","vrouw"],zero=T(\'Choose One\'))\ndb.guest.national_number.requires=IS_NATIONALNUMBER(national_number)\n#als je require gebruikt kan niet leeg zijn\n#db.guest.email.requires=IS_EMAIL(error_message=\'invalid email\')\n\ndb.define_table(\'difficultie\',\n    Field(\'registrator\',\'reference auth_user\',default=auth.user_id,label=T(\'Registred by\')),\n    Field(\'guest\',db.guest,notnull=True,label=T(\'Guest\')),\n    Field(\'subject\',notnull=True,label=T(\'Difficultie\')), #vaste waarden van maken\n    Field(\'story\',\'text\',label=T(\'Story\')),\n    format=\'%(difficultie)s\')\ndb.difficultie.subject.requires=IS_IN_SET(["administratie","financieel","middelengebruik","familiaal","huisvesting","juridisch","ander"])\n\ndb.define_table(\'talk\',\n    Field(\'registrator\',\'reference auth_user\',default=auth.user_id,label=T(\'Registered by\')),\n    Field(\'guest\',db.guest,notnull=True,label=T(\'Guest\')),\n    Field(\'date_talk\',\'date\',default=request.now,label=T(\'Date Talk\')),\n    Field(\'type_of_talk\',notnull=True,label=T(\'Type of talk\')),\n    Field(\'story\',\'text\',label=T(\'Story\')),\n    format =\'%(type_of_talk)s\'\n)\n\ndb.talk.type_of_talk.requires=IS_IN_SET(["intake","trajectbegeleiding","evaluatie"])\n\ndb.define_table(\'competence\',\n   Field(\'name\',label=T(\'Name\')),\n   format= \'%(name)s\')\n\ndb.define_table(\'guest_competence\',\n    Field(\'guest\',db.guest,notnull=True,label=T(\'Guest\')),\n    Field(\'state_of_competence\',label=T(\'State\')),\n    Field(\'competence\',db.competence,label=T(\'Competence\')),\n    Field(\'type_of_competence\',label=T(\'Type of competence\')),\n    Field(\'level_of_competence\',label=T(\'Level of competence\')),\n    format = \'%(competence)s\')\n\ndb.guest_competence.state_of_competence.requires=IS_IN_SET(["kan","wil"])\ndb.guest_competence.type_of_competence.requires=IS_IN_SET(["generiek","technisch"])\n\ndb.define_table(\'things_to_do\',\n    Field(\'registrator\',\'reference auth_user\',default=auth.user_id,label=T(\'Registered by\')),\n    Field(\'guest\',db.guest,notnull=True,label=T(\'Guest\')),\n    Field (\'guidance\',label=T(\'Guidance\')),\n    Field(\'startdate\',\'date\',default=request.now,notnull=True,label=T(\'startdate\')),\n    Field(\'date_to_aim\', \'date\', label=(\'Aimdate\')),\n    Field(\'competence\',db.competence, label=(\'Competence\')),\n    Field(\'story\',\'text\',label=T(\'Story\')),\n    Field(\'success\',\'boolean\',label=T(\'Success\')))\n'
p7
sS'snapshot'
p8
(dp9
S'exception'
p10
(dp11
S'__hash__'
p12
S"<method-wrapper '__hash__' of exceptions.NameError object>"
p13
sS'__setattr__'
p14
S"<method-wrapper '__setattr__' of exceptions.NameError object>"
p15
sS'__reduce_ex__'
p16
S'<built-in method __reduce_ex__ of exceptions.NameError object>'
p17
sS'__getslice__'
p18
S"<method-wrapper '__getslice__' of exceptions.NameError object>"
p19
sS'__getitem__'
p20
S"<method-wrapper '__getitem__' of exceptions.NameError object>"
p21
sS'__setstate__'
p22
S'<built-in method __setstate__ of exceptions.NameError object>'
p23
sS'__reduce__'
p24
S'<built-in method __reduce__ of exceptions.NameError object>'
p25
sS'__str__'
p26
S"<method-wrapper '__str__' of exceptions.NameError object>"
p27
sS'__format__'
p28
S'<built-in method __format__ of exceptions.NameError object>'
p29
sS'__getattribute__'
p30
S"<method-wrapper '__getattribute__' of exceptions.NameError object>"
p31
sS'__class__'
p32
S"<type 'exceptions.NameError'>"
p33
sS'__unicode__'
p34
S'<built-in method __unicode__ of exceptions.NameError object>'
p35
sS'__delattr__'
p36
S"<method-wrapper '__delattr__' of exceptions.NameError object>"
p37
sS'__subclasshook__'
p38
S'<built-in method __subclasshook__ of type object>'
p39
sS'__repr__'
p40
S"<method-wrapper '__repr__' of exceptions.NameError object>"
p41
sS'__dict__'
p42
S'{}'
p43
sS'args'
p44
S'("name \'national_number\' is not defined",)'
p45
sS'__sizeof__'
p46
S'<built-in method __sizeof__ of exceptions.NameError object>'
p47
sS'__doc__'
p48
S"'Name not found globally.'"
p49
sS'__init__'
p50
S"<method-wrapper '__init__' of exceptions.NameError object>"
p51
sS'__new__'
p52
S'<built-in method __new__ of type object>'
p53
ssS'evalue'
p54
S"name 'national_number' is not defined"
p55
sS'request'
p56
cgluon.html
XML_unpickle
p57
(S'soa\x00\x00<div><table><tr><td style="font-weight:bold;vertical-align:top;">ajax</td><td style="vertical-align:top;">:</td><td><div>False</div></td></tr><tr><td style="font-weight:bold;vertical-align:top;">application</td><td style="vertical-align:top;">:</td><td><div>YEIRegistratieversie2</div></td></tr><tr><td style="font-weight:bold;vertical-align:top;">args</td><td style="vertical-align:top;">:</td><td><div><table></table></div></td></tr><tr><td style="font-weight:bold;vertical-align:top;">cid</td><td style="vertical-align:top;">:</td><td><div>None</div></td></tr><tr><td style="font-weight:bold;vertical-align:top;">client</td><td style="vertical-align:top;">:</td><td><div>127.0.0.1</div></td></tr><tr><td style="font-weight:bold;vertical-align:top;">controller</td><td style="vertical-align:top;">:</td><td><div>guest</div></td></tr><tr><td style="font-weight:bold;vertical-align:top;">cookies</td><td style="vertical-align:top;">:</td><td><div><table><tr><td style="font-weight:bold;vertical-align:top;">session_id_admin</td><td style="vertical-align:top;">:</td><td><div>127.0.0.1-97301553-579c-4f6a-9899-47e24b5743b9<table><tr><td style="font-weight:bold;vertical-align:top;">comment</td><td style="vertical-align:top;">:</td><td><div></div></td></tr><tr><td style="font-weight:bold;vertical-align:top;">domain</td><td style="vertical-align:top;">:</td><td><div></div></td></tr><tr><td style="font-weight:bold;vertical-align:top;">expires</td><td style="vertical-align:top;">:</td><td><div></div></td></tr><tr><td style="font-weight:bold;vertical-align:top;">httponly</td><td style="vertical-align:top;">:</td><td><div></div></td></tr><tr><td style="font-weight:bold;vertical-align:top;">max-age</td><td style="vertical-align:top;">:</td><td><div></div></td></tr><tr><td style="font-weight:bold;vertical-align:top;">path</td><td style="vertical-align:top;">:</td><td><div></div></td></tr><tr><td style="font-weight:bold;vertical-align:top;">secure</td><td style="vertical-align:top;">:</td><td><div></div></td></tr><tr><td style="font-weight:bold;vertical-align:top;">version</td><td style="vertical-align:top;">:</td><td><div></div></td></tr></table></div></td></tr><tr><td style="font-weight:bold;vertical-align:top;">session_id_welcome</td><td style="vertical-align:top;">:</td><td><div>127.0.0.1-b070f607-f79a-4403-86d4-1a64d7c05f1f<table><tr><td style="font-weight:bold;vertical-align:top;">comment</td><td style="vertical-align:top;">:</td><td><div></div></td></tr><tr><td style="font-weight:bold;vertical-align:top;">domain</td><td style="vertical-align:top;">:</td><td><div></div></td></tr><tr><td style="font-weight:bold;vertical-align:top;">expires</td><td style="vertical-align:top;">:</td><td><div></div></td></tr><tr><td style="font-weight:bold;vertical-align:top;">httponly</td><td style="vertical-align:top;">:</td><td><div></div></td></tr><tr><td style="font-weight:bold;vertical-align:top;">max-age</td><td style="vertical-align:top;">:</td><td><div></div></td></tr><tr><td style="font-weight:bold;vertical-align:top;">path</td><td style="vertical-align:top;">:</td><td><div></div></td></tr><tr><td style="font-weight:bold;vertical-align:top;">secure</td><td style="vertical-align:top;">:</td><td><div></div></td></tr><tr><td style="font-weight:bold;vertical-align:top;">version</td><td style="vertical-align:top;">:</td><td><div></div></td></tr></table></div></td></tr><tr><td style="font-weight:bold;vertical-align:top;">session_id_yeiregistratieversie2</td><td style="vertical-align:top;">:</td><td><div>127.0.0.1-9a8b5270-36da-4333-86c4-ef1bea5cee1a<table><tr><td style="font-weight:bold;vertical-align:top;">comment</td><td style="vertical-align:top;">:</td><td><div></div></td></tr><tr><td style="font-weight:bold;vertical-align:top;">domain</td><td style="vertical-align:top;">:</td><td><div></div></td></tr><tr><td style="font-weight:bold;vertical-align:top;">expires</td><td style="vertical-align:top;">:</td><td><div></div></td></tr><tr><td style="font-weight:bold;vertical-align:top;">httponly</td><td style="vertical-align:top;">:</td><td><div></div></td></tr><tr><td style="font-weight:bold;vertical-align:top;">max-age</td><td style="vertical-align:top;">:</td><td><div></div></td></tr><tr><td style="font-weight:bold;vertical-align:top;">path</td><td style="vertical-align:top;">:</td><td><div></div></td></tr><tr><td style="font-weight:bold;vertical-align:top;">secure</td><td style="vertical-align:top;">:</td><td><div></div></td></tr><tr><td style="font-weight:bold;vertical-align:top;">version</td><td style="vertical-align:top;">:</td><td><div></div></td></tr></table></div></td></tr></table></div></td></tr><tr><td style="font-weight:bold;vertical-align:top;">env</td><td style="vertical-align:top;">:</td><td><div><table><tr><td style="font-weight:bold;vertical-align:top;">HTTP_ACCEPT</td><td style="vertical-align:top;">:</td><td><div>text/html,application/xhtml+xml,application/xml;q=0.9,image/webp,*/*;q=0.8</div></td></tr><tr><td style="font-weight:bold;vertical-align:top;">HTTP_ACCEPT_ENCODING</td><td style="vertical-align:top;">:</td><td><div>gzip, deflate, sdch</div></td></tr><tr><td style="font-weight:bold;vertical-align:top;">HTTP_ACCEPT_LANGUAGE</td><td style="vertical-align:top;">:</td><td><div>en-US,en;q=0.8,nl;q=0.6,pt;q=0.4</div></td></tr><tr><td style="font-weight:bold;vertical-align:top;">HTTP_CACHE_CONTROL</td><td style="vertical-align:top;">:</td><td><div>max-age=0</div></td></tr><tr><td style="font-weight:bold;vertical-align:top;">HTTP_CONNECTION</td><td style="vertical-align:top;">:</td><td><div>keep-alive</div></td></tr><tr><td style="font-weight:bold;vertical-align:top;">HTTP_COOKIE</td><td style="vertical-align:top;">:</td><td><div>session_id_welcome=127.0.0.1-b070f607-f79a-4403-86d4-1a64d7c05f1f; session_id_yeiregistratieversie2=127.0.0.1-9a8b5270-36da-4333-86c4-ef1bea5cee1a; session_id_admin=127.0.0.1-97301553-579c-4f6a-9899-47e24b5743b9</div></td></tr><tr><td style="font-weight:bold;vertical-align:top;">HTTP_HOST</td><td style="vertical-align:top;">:</td><td><div>127.0.0.1:8000</div></td></tr><tr><td style="font-weight:bold;vertical-align:top;">HTTP_REFERER</td><td style="vertical-align:top;">:</td><td><div>http://127.0.0.1:8000/YEIRegistratieversie2/default/user/login?_next=/YEIRegistratieversie2/guest/new</div></td></tr><tr><td style="font-weight:bold;vertical-align:top;">HTTP_UPGRADE_INSECURE_REQUESTS</td><td style="vertical-align:top;">:</td><td><div>1</div></td></tr><tr><td style="font-weight:bold;vertical-align:top;">HTTP_USER_AGENT</td><td style="vertical-align:top;">:</td><td><div>Mozilla/5.0 (Windows NT 10.0; WOW64) AppleWebKit/537.36 (KHTML, like Gecko) Chrome/45.0.2454.85 Safari/537.36</div></td></tr><tr><td style="font-weight:bold;vertical-align:top;">PATH_INFO</td><td style="vertical-align:top;">:</td><td><div>/YEIRegistratieversie2/guest/new</div></td></tr><tr><td style="font-weight:bold;vertical-align:top;">QUERY_STRING</td><td style="vertical-align:top;">:</td><td><div></div></td></tr><tr><td style="font-weight:bold;vertical-align:top;">REMOTE_ADDR</td><td style="vertical-align:top;">:</td><td><div>127.0.0.1</div></td></tr><tr><td style="font-weight:bold;vertical-align:top;">REMOTE_PORT</td><td style="vertical-align:top;">:</td><td><div>56499</div></td></tr><tr><td style="font-weight:bold;vertical-align:top;">REQUEST_METHOD</td><td style="vertical-align:top;">:</td><td><div>GET</div></td></tr><tr><td style="font-weight:bold;vertical-align:top;">SCRIPT_NAME</td><td style="vertical-align:top;">:</td><td><div></div></td></tr><tr><td style="font-weight:bold;vertical-align:top;">SERVER_NAME</td><td style="vertical-align:top;">:</td><td><div>Tom_natus-Laptop</div></td></tr><tr><td style="font-weight:bold;vertical-align:top;">SERVER_PORT</td><td style="vertical-align:top;">:</td><td><div>8000</div></td></tr><tr><td style="font-weight:bold;vertical-align:top;">SERVER_PROTOCOL</td><td style="vertical-align:top;">:</td><td><div>HTTP/1.1</div></td></tr><tr><td style="font-weight:bold;vertical-align:top;">SERVER_SOFTWARE</td><td style="vertical-align:top;">:</td><td><div>Rocket 1.2.6</div></td></tr><tr><td style="font-weight:bold;vertical-align:top;">app_folders</td><td style="vertical-align:top;">:</td><td><div>set([&#x27;C:\\\\Users\\\\Tom\\\\Development\\\\web2py\\\\applications\\\\admin\\\\&#x27;, &#x27;C:\\\\Users\\\\Tom\\\\Development\\\\web2py\\\\applications\\\\welcome\\\\&#x27;, &#x27;C:\\\\Users\\\\Tom\\\\Development\\\\web2py\\\\applications\\\\YEIRegistratieversie2\\\\&#x27;])</div></td></tr><tr><td style="font-weight:bold;vertical-align:top;">applications_parent</td><td style="vertical-align:top;">:</td><td><div>C:\\Users\\Tom\\Development\\web2py</div></td></tr><tr><td style="font-weight:bold;vertical-align:top;">cmd_args</td><td style="vertical-align:top;">:</td><td><div><table></table></div></td></tr><tr><td style="font-weight:bold;vertical-align:top;">cmd_options</td><td style="vertical-align:top;">:</td><td><div>&lt;Values at 0x3b0c748: {&#x27;verbose&#x27;: False, &#x27;ip&#x27;: &#x27;127.0.0.1&#x27;, &#x27;debuglevel&#x27;: 30, &#x27;with_scheduler&#x27;: False, &#x27;ips&#x27;: [&#x27;2001:0:5ef5:79fd:1836:f86:3f57:ff74&#x27;, &#x27;192.168.0.139&#x27;, &#x27;fe80::1836:f86:3f57:ff74%6&#x27;, &#x27;fe80::f816:d1eb:a7a:39ad%4&#x27;], &#x27;shutdown_timeout&#x27;: 5, &#x27;taskbar&#x27;: False, &#x27;with_coverage&#x27;: False, &#x27;scheduler_groups&#x27;: None, &#x27;port&#x27;: 8000, &#x27;maxthreads&#x27;: None, &#x27;softcron&#x27;: False, &#x27;server_name&#x27;: &#x27;Tom_natus-Laptop&#x27;, &#x27;bpython&#x27;: False, &#x27;nogui&#x27;: False, &#x27;pid_filename&#x27;: &#x27;httpserver.pid&#x27;, &#x27;print_errors&#x27;: False, &#x27;extcron&#x27;: False, &#x27;runcron&#x27;: False, &#x27;run_system_tests&#x27;: False, &#x27;test&#x27;: None, &#x27;folder&#x27;: &#x27;C:\\\\Users\\\\Tom\\\\Development\\\\web2py&#x27;, &#x27;config&#x27;: &#x27;&#x27;, &#x27;minthreads&#x27;: None, &#x27;shell&#x27;: None, &#x27;run&#x27;: &#x27;&#x27;, &#x27;log_filename&#x27;: &#x27;httpserver.log&#x27;, &#x27;profiler_dir&#x27;: None, &#x27;args&#x27;: [&#x27;&#x27;], &#x27;socket_timeout&#x27;: 5, &#x27;ssl_ca_certificate&#x27;: None, &#x27;scheduler&#x27;: None, &#x27;interfaces&#x27;: None, &#x27;ssl_private_key&#x27;: &#x27;&#x27;, &#x27;gae&#x27;: None, &#x27;password&#x27;: &#x27;&lt;ask&gt;&#x27;, &#x27;request_queue_size&#x27;: 5, &#x27;ssl_certificate&#x27;: &#x27;&#x27;, &#x27;cronjob&#x27;: False, &#x27;numthreads&#x27;: None, &#x27;quiet&#x27;: False, &#x27;import_models&#x27;: False, &#x27;timeout&#x27;: 10, &#x27;plain&#x27;: False, &#x27;nobanner&#x27;: False}&gt;</div></td></tr><tr><td style="font-weight:bold;vertical-align:top;">db_sessions</td><td style="vertical-align:top;">:</td><td><div>set([])</div></td></tr><tr><td style="font-weight:bold;vertical-align:top;">debugging</td><td style="vertical-align:top;">:</td><td><div>False</div></td></tr><tr><td style="font-weight:bold;vertical-align:top;">gluon_parent</td><td style="vertical-align:top;">:</td><td><div>C:\\Users\\Tom\\Development\\web2py</div></td></tr><tr><td style="font-weight:bold;vertical-align:top;">http_accept</td><td style="vertical-align:top;">:</td><td><div>text/html,application/xhtml+xml,application/xml;q=0.9,image/webp,*/*;q=0.8</div></td></tr><tr><td style="font-weight:bold;vertical-align:top;">http_accept_encoding</td><td style="vertical-align:top;">:</td><td><div>gzip, deflate, sdch</div></td></tr><tr><td style="font-weight:bold;vertical-align:top;">http_accept_language</td><td style="vertical-align:top;">:</td><td><div>en-US,en;q=0.8,nl;q=0.6,pt;q=0.4</div></td></tr><tr><td style="font-weight:bold;vertical-align:top;">http_cache_control</td><td style="vertical-align:top;">:</td><td><div>max-age=0</div></td></tr><tr><td style="font-weight:bold;vertical-align:top;">http_connection</td><td style="vertical-align:top;">:</td><td><div>keep-alive</div></td></tr><tr><td style="font-weight:bold;vertical-align:top;">http_cookie</td><td style="vertical-align:top;">:</td><td><div>session_id_welcome=127.0.0.1-b070f607-f79a-4403-86d4-1a64d7c05f1f; session_id_yeiregistratieversie2=127.0.0.1-9a8b5270-36da-4333-86c4-ef1bea5cee1a; session_id_admin=127.0.0.1-97301553-579c-4f6a-9899-47e24b5743b9</div></td></tr><tr><td style="font-weight:bold;vertical-align:top;">http_host</td><td style="vertical-align:top;">:</td><td><div>127.0.0.1:8000</div></td></tr><tr><td style="font-weight:bold;vertical-align:top;">http_referer</td><td style="vertical-align:top;">:</td><td><div>http://127.0.0.1:8000/YEIRegistratieversie2/default/user/login?_next=/YEIRegistratieversie2/guest/new</div></td></tr><tr><td style="font-weight:bold;vertical-align:top;">http_upgrade_insecure_requests</td><td style="vertical-align:top;">:</td><td><div>1</div></td></tr><tr><td style="font-weight:bold;vertical-align:top;">http_user_agent</td><td style="vertical-align:top;">:</td><td><div>Mozilla/5.0 (Windows NT 10.0; WOW64) AppleWebKit/537.36 (KHTML, like Gecko) Chrome/45.0.2454.85 Safari/537.36</div></td></tr><tr><td style="font-weight:bold;vertical-align:top;">is_jython</td><td style="vertical-align:top;">:</td><td><div>False</div></td></tr><tr><td style="font-weight:bold;vertical-align:top;">is_pypy</td><td style="vertical-align:top;">:</td><td><div>False</div></td></tr><tr><td style="font-weight:bold;vertical-align:top;">is_source</td><td style="vertical-align:top;">:</td><td><div>True</div></td></tr><tr><td style="font-weight:bold;vertical-align:top;">local_hosts</td><td style="vertical-align:top;">:</td><td><div><table><tr><td><div>192.168.0.139</div></td></tr><tr><td><div>fe80::f816:d1eb:a7a:39ad%4</div></td></tr><tr><td><div>::ffff:127.0.0.1</div></td></tr><tr><td><div>::1</div></td></tr><tr><td><div>Tom_natus-Laptop</div></td></tr><tr><td><div>fe80::1836:f86:3f57:ff74%6</div></td></tr><tr><td><div>127.0.0.1</div></td></tr><tr><td><div>2001:0:5ef5:79fd:1836:f86:3f57:ff74</div></td></tr></table></div></td></tr><tr><td style="font-weight:bold;vertical-align:top;">path_info</td><td style="vertical-align:top;">:</td><td><div>/YEIRegistratieversie2/guest/new</div></td></tr><tr><td style="font-weight:bold;vertical-align:top;">query_string</td><td style="vertical-align:top;">:</td><td><div></div></td></tr><tr><td style="font-weight:bold;vertical-align:top;">remote_addr</td><td style="vertical-align:top;">:</td><td><div>127.0.0.1</div></td></tr><tr><td style="font-weight:bold;vertical-align:top;">remote_port</td><td style="vertical-align:top;">:</td><td><div>56499</div></td></tr><tr><td style="font-weight:bold;vertical-align:top;">request_method</td><td style="vertical-align:top;">:</td><td><div>GET</div></td></tr><tr><td style="font-weight:bold;vertical-align:top;">request_uri</td><td style="vertical-align:top;">:</td><td><div>/YEIRegistratieversie2/guest/new</div></td></tr><tr><td style="font-weight:bold;vertical-align:top;">script_name</td><td style="vertical-align:top;">:</td><td><div></div></td></tr><tr><td style="font-weight:bold;vertical-align:top;">server_name</td><td style="vertical-align:top;">:</td><td><div>Tom_natus-Laptop</div></td></tr><tr><td style="font-weight:bold;vertical-align:top;">server_port</td><td style="vertical-align:top;">:</td><td><div>8000</div></td></tr><tr><td style="font-weight:bold;vertical-align:top;">server_protocol</td><td style="vertical-align:top;">:</td><td><div>HTTP/1.1</div></td></tr><tr><td style="font-weight:bold;vertical-align:top;">server_software</td><td style="vertical-align:top;">:</td><td><div>Rocket 1.2.6</div></td></tr><tr><td style="font-weight:bold;vertical-align:top;">web2py_path</td><td style="vertical-align:top;">:</td><td><div>C:\\Users\\Tom\\Development\\web2py</div></td></tr><tr><td style="font-weight:bold;vertical-align:top;">web2py_version</td><td style="vertical-align:top;">:</td><td><div>2.11.2-stable+timestamp.2015.05.30.16.33.24</div></td></tr><tr><td style="font-weight:bold;vertical-align:top;">wsgi.errors</td><td style="vertical-align:top;">:</td><td><div>&lt;open file &#x27;&lt;stderr&gt;&#x27;, mode &#x27;w&#x27; at 0x000000000227B150&gt;</div></td></tr><tr><td style="font-weight:bold;vertical-align:top;">wsgi.file_wrapper</td><td style="vertical-align:top;">:</td><td><div>&lt;class wsgiref.util.FileWrapper at 0x0000000003AA6468&gt;</div></td></tr><tr><td style="font-weight:bold;vertical-align:top;">wsgi.input</td><td style="vertical-align:top;">:</td><td><div>&lt;socket._fileobject object at 0x0000000009C76750&gt;</div></td></tr><tr><td style="font-weight:bold;vertical-align:top;">wsgi.multiprocess</td><td style="vertical-align:top;">:</td><td><div>False</div></td></tr><tr><td style="font-weight:bold;vertical-align:top;">wsgi.multithread</td><td style="vertical-align:top;">:</td><td><div>True</div></td></tr><tr><td style="font-weight:bold;vertical-align:top;">wsgi.run_once</td><td style="vertical-align:top;">:</td><td><div>False</div></td></tr><tr><td style="font-weight:bold;vertical-align:top;">wsgi.url_scheme</td><td style="vertical-align:top;">:</td><td><div>http</div></td></tr><tr><td style="font-weight:bold;vertical-align:top;">wsgi.version</td><td style="vertical-align:top;">:</td><td><div><table><tr><td><div>1</div></td></tr><tr><td><div>0</div></td></tr></table></div></td></tr><tr><td style="font-weight:bold;vertical-align:top;">wsgi_errors</td><td style="vertical-align:top;">:</td><td><div>&lt;open file &#x27;&lt;stderr&gt;&#x27;, mode &#x27;w&#x27; at 0x000000000227B150&gt;</div></td></tr><tr><td style="font-weight:bold;vertical-align:top;">wsgi_file_wrapper</td><td style="vertical-align:top;">:</td><td><div>&lt;class wsgiref.util.FileWrapper at 0x0000000003AA6468&gt;</div></td></tr><tr><td style="font-weight:bold;vertical-align:top;">wsgi_input</td><td style="vertical-align:top;">:</td><td><div>&lt;socket._fileobject object at 0x0000000009C76750&gt;</div></td></tr><tr><td style="font-weight:bold;vertical-align:top;">wsgi_multiprocess</td><td style="vertical-align:top;">:</td><td><div>False</div></td></tr><tr><td style="font-weight:bold;vertical-align:top;">wsgi_multithread</td><td style="vertical-align:top;">:</td><td><div>True</div></td></tr><tr><td style="font-weight:bold;vertical-align:top;">wsgi_run_once</td><td style="vertical-align:top;">:</td><td><div>False</div></td></tr><tr><td style="font-weight:bold;vertical-align:top;">wsgi_url_scheme</td><td style="vertical-align:top;">:</td><td><div>http</div></td></tr><tr><td style="font-weight:bold;vertical-align:top;">wsgi_version</td><td style="vertical-align:top;">:</td><td><div><table><tr><td><div>1</div></td></tr><tr><td><div>0</div></td></tr></table></div></td></tr></table></div></td></tr><tr><td style="font-weight:bold;vertical-align:top;">extension</td><td style="vertical-align:top;">:</td><td><div>html</div></td></tr><tr><td style="font-weight:bold;vertical-align:top;">folder</td><td style="vertical-align:top;">:</td><td><div>C:\\Users\\Tom\\Development\\web2py\\applications\\YEIRegistratieversie2\\</div></td></tr><tr><td style="font-weight:bold;vertical-align:top;">function</td><td style="vertical-align:top;">:</td><td><div>new</div></td></tr><tr><td style="font-weight:bold;vertical-align:top;">global_settings</td><td style="vertical-align:top;">:</td><td><div><table><tr><td style="font-weight:bold;vertical-align:top;">app_folders</td><td style="vertical-align:top;">:</td><td><div>set([&#x27;C:\\\\Users\\\\Tom\\\\Development\\\\web2py\\\\applications\\\\admin\\\\&#x27;, &#x27;C:\\\\Users\\\\Tom\\\\Development\\\\web2py\\\\applications\\\\welcome\\\\&#x27;, &#x27;C:\\\\Users\\\\Tom\\\\Development\\\\web2py\\\\applications\\\\YEIRegistratieversie2\\\\&#x27;])</div></td></tr><tr><td style="font-weight:bold;vertical-align:top;">applications_parent</td><td style="vertical-align:top;">:</td><td><div>C:\\Users\\Tom\\Development\\web2py</div></td></tr><tr><td style="font-weight:bold;vertical-align:top;">cmd_args</td><td style="vertical-align:top;">:</td><td><div><table></table></div></td></tr><tr><td style="font-weight:bold;vertical-align:top;">cmd_options</td><td style="vertical-align:top;">:</td><td><div>&lt;Values at 0x3b0c748: {&#x27;verbose&#x27;: False, &#x27;ip&#x27;: &#x27;127.0.0.1&#x27;, &#x27;debuglevel&#x27;: 30, &#x27;with_scheduler&#x27;: False, &#x27;ips&#x27;: [&#x27;2001:0:5ef5:79fd:1836:f86:3f57:ff74&#x27;, &#x27;192.168.0.139&#x27;, &#x27;fe80::1836:f86:3f57:ff74%6&#x27;, &#x27;fe80::f816:d1eb:a7a:39ad%4&#x27;], &#x27;shutdown_timeout&#x27;: 5, &#x27;taskbar&#x27;: False, &#x27;with_coverage&#x27;: False, &#x27;scheduler_groups&#x27;: None, &#x27;port&#x27;: 8000, &#x27;maxthreads&#x27;: None, &#x27;softcron&#x27;: False, &#x27;server_name&#x27;: &#x27;Tom_natus-Laptop&#x27;, &#x27;bpython&#x27;: False, &#x27;nogui&#x27;: False, &#x27;pid_filename&#x27;: &#x27;httpserver.pid&#x27;, &#x27;print_errors&#x27;: False, &#x27;extcron&#x27;: False, &#x27;runcron&#x27;: False, &#x27;run_system_tests&#x27;: False, &#x27;test&#x27;: None, &#x27;folder&#x27;: &#x27;C:\\\\Users\\\\Tom\\\\Development\\\\web2py&#x27;, &#x27;config&#x27;: &#x27;&#x27;, &#x27;minthreads&#x27;: None, &#x27;shell&#x27;: None, &#x27;run&#x27;: &#x27;&#x27;, &#x27;log_filename&#x27;: &#x27;httpserver.log&#x27;, &#x27;profiler_dir&#x27;: None, &#x27;args&#x27;: [&#x27;&#x27;], &#x27;socket_timeout&#x27;: 5, &#x27;ssl_ca_certificate&#x27;: None, &#x27;scheduler&#x27;: None, &#x27;interfaces&#x27;: None, &#x27;ssl_private_key&#x27;: &#x27;&#x27;, &#x27;gae&#x27;: None, &#x27;password&#x27;: &#x27;&lt;ask&gt;&#x27;, &#x27;request_queue_size&#x27;: 5, &#x27;ssl_certificate&#x27;: &#x27;&#x27;, &#x27;cronjob&#x27;: False, &#x27;numthreads&#x27;: None, &#x27;quiet&#x27;: False, &#x27;import_models&#x27;: False, &#x27;timeout&#x27;: 10, &#x27;plain&#x27;: False, &#x27;nobanner&#x27;: False}&gt;</div></td></tr><tr><td style="font-weight:bold;vertical-align:top;">db_sessions</td><td style="vertical-align:top;">:</td><td><div>set([])</div></td></tr><tr><td style="font-weight:bold;vertical-align:top;">debugging</td><td style="vertical-align:top;">:</td><td><div>False</div></td></tr><tr><td style="font-weight:bold;vertical-align:top;">gluon_parent</td><td style="vertical-align:top;">:</td><td><div>C:\\Users\\Tom\\Development\\web2py</div></td></tr><tr><td style="font-weight:bold;vertical-align:top;">is_jython</td><td style="vertical-align:top;">:</td><td><div>False</div></td></tr><tr><td style="font-weight:bold;vertical-align:top;">is_pypy</td><td style="vertical-align:top;">:</td><td><div>False</div></td></tr><tr><td style="font-weight:bold;vertical-align:top;">is_source</td><td style="vertical-align:top;">:</td><td><div>True</div></td></tr><tr><td style="font-weight:bold;vertical-align:top;">local_hosts</td><td style="vertical-align:top;">:</td><td><div><table><tr><td><div>192.168.0.139</div></td></tr><tr><td><div>fe80::f816:d1eb:a7a:39ad%4</div></td></tr><tr><td><div>::ffff:127.0.0.1</div></td></tr><tr><td><div>::1</div></td></tr><tr><td><div>Tom_natus-Laptop</div></td></tr><tr><td><div>fe80::1836:f86:3f57:ff74%6</div></td></tr><tr><td><div>127.0.0.1</div></td></tr><tr><td><div>2001:0:5ef5:79fd:1836:f86:3f57:ff74</div></td></tr></table></div></td></tr><tr><td style="font-weight:bold;vertical-align:top;">web2py_version</td><td style="vertical-align:top;">:</td><td><div>2.11.2-stable+timestamp.2015.05.30.16.33.24</div></td></tr></table></div></td></tr><tr><td style="font-weight:bold;vertical-align:top;">is_https</td><td style="vertical-align:top;">:</td><td><div>False</div></td></tr><tr><td style="font-weight:bold;vertical-align:top;">is_local</td><td style="vertical-align:top;">:</td><td><div>True</div></td></tr><tr><td style="font-weight:bold;vertical-align:top;">is_restful</td><td style="vertical-align:top;">:</td><td><div>False</div></td></tr><tr><td style="font-weight:bold;vertical-align:top;">is_sheduler</td><td style="vertical-align:top;">:</td><td><div>None</div></td></tr><tr><td style="font-weight:bold;vertical-align:top;">is_shell</td><td style="vertical-align:top;">:</td><td><div>None</div></td></tr><tr><td style="font-weight:bold;vertical-align:top;">now</td><td style="vertical-align:top;">:</td><td><div>datetime.datetime(2015, 9, 8, 10, 44, 19, 912000)</div></td></tr><tr><td style="font-weight:bold;vertical-align:top;">raw_args</td><td style="vertical-align:top;">:</td><td><div></div></td></tr><tr><td style="font-weight:bold;vertical-align:top;">raw_extension</td><td style="vertical-align:top;">:</td><td><div>None</div></td></tr><tr><td style="font-weight:bold;vertical-align:top;">url</td><td style="vertical-align:top;">:</td><td><div>/YEIRegistratieversie2/guest/new</div></td></tr><tr><td style="font-weight:bold;vertical-align:top;">utcnow</td><td style="vertical-align:top;">:</td><td><div>datetime.datetime(2015, 9, 8, 8, 44, 19, 912000)</div></td></tr><tr><td style="font-weight:bold;vertical-align:top;">wsgi</td><td style="vertical-align:top;">:</td><td><div>&lt;gluon.main.LazyWSGI object at 0x000000000A215198&gt;</div></td></tr></table></div>'
tRp58
sS'frames'
p59
(lp60
(dp61
S'file'
p62
S'C:\\Users\\Tom\\Development\\web2py\\gluon\\restricted.py'
p63
sS'dump'
p64
(dp65
S'environment'
p66
S"{'A': <class 'gluon.html.A'>, 'ANY_OF': <class 'gluon.validators.ANY_OF'>, 'ASSIGNJS': <function ASSIGNJS>, 'AppConfig': <function AppConfig>, 'Auth': <class 'gluon.tools.Auth'>, 'B': <class 'gluon.html.B'>, 'BEAUTIFY': <class 'gluon.html.BEAUTIFY'>, 'BODY': <class 'gluon.html.BODY'>, 'BR': <class 'gluon.html.BR'>, 'BUTTON': <class 'gluon.html.BUTTON'>, ...}"
p67
sS'ccode'
p68
S'<code object <module> at 000000000A356030, file ...ions\\YEIRegistratieversie2\\models\\db.py", line 2>'
p69
ssS'lnum'
p70
I227
sS'lines'
p71
(dp72
I224
S'            ccode = code'
p73
sI225
S'        else:'
p74
sI226
S'            ccode = compile2(code, layer)'
p75
sI227
S'        exec ccode in environment'
p76
sI228
S'    except HTTP:'
p77
sI229
S'        raise'
p78
sI230
S'    except RestrictedError:'
p79
sI231
S'        # do not encapsulate (obfuscate) the original RestrictedError'
p80
sI222
S'    try:'
p81
sI223
S'        if isinstance(code, types.CodeType):'
p82
ssS'call'
p83
S'(code="# -*- coding: utf-8 -*-\\nimport datetime\\n########...  Field(\'success\',\'boolean\',label=T(\'Success\')))\\n", environment={\'A\': <class \'gluon.html.A\'>, \'ANY_OF\': <class \'gluon.validators.ANY_OF\'>, \'ASSIGNJS\': <function ASSIGNJS>, \'AppConfig\': <function AppConfig>, \'Auth\': <class \'gluon.tools.Auth\'>, \'B\': <class \'gluon.html.B\'>, \'BEAUTIFY\': <class \'gluon.html.BEAUTIFY\'>, \'BODY\': <class \'gluon.html.BODY\'>, \'BR\': <class \'gluon.html.BR\'>, \'BUTTON\': <class \'gluon.html.BUTTON\'>, ...}, layer=r\'C:\\Users\\Tom\\Development\\web2py\\applications\\YEIRegistratieversie2\\models\\db.py\')'
p84
sS'func'
p85
S'restricted'
p86
sa(dp87
g62
S'C:\\Users\\Tom\\Development\\web2py\\applications\\YEIRegistratieversie2\\models\\db.py'
p88
sg64
(dp89
S'IS_NATIONALNUMBER'
p90
S'<class __restricted__.IS_NATIONALNUMBER>'
p91
sS'db.guest.national_number.requires'
p92
S'[<gluon.validators.IS_LENGTH object>, <gluon.validators.IS_NOT_EMPTY object>]'
p93
sS'db'
p94
S'<DAL uri="sqlite://storage.sqlite">'
p95
sS'national_number'
p96
S'undefined'
p97
sS'db.guest'
p98
S'<Table guest (id,first_name,family_name,birth_ye...mnummer,email,registration_date,registrator,age)>'
p99
sS'db.guest.national_number'
p100
S'<pydal.objects.Field object>'
p101
ssg70
I176
sg71
(dp102
I171
S"\tField('registrator','reference auth_user',default=auth.user_id,label=T('Registered by')),"
p103
sI172
S"\tField('age',compute=lambda r: (datetime.datetime.now().year) - int(r['birth_year']),label=T('Age')),"
p104
sI173
S"\tformat = '%(first_name)s %(family_name)s')"
p105
sI174
S"db.guest.birth_year.requires=IS_IN_SET(years,zero=T('Choose One'),error_message = T('Choose a year from the list'))"
p106
sI175
S'db.guest.sex.requires=IS_IN_SET(["man","vrouw"],zero=T(\'Choose One\'))'
p107
sI176
S'db.guest.national_number.requires=IS_NATIONALNUMBER(national_number)'
p108
sI177
S'#als je require gebruikt kan niet leeg zijn'
p109
sI178
S"#db.guest.email.requires=IS_EMAIL(error_message='invalid email')"
p110
sI179
S''
sI180
S"db.define_table('difficultie',"
p111
ssg83
S'()'
p112
sg85
S'<module>'
p113
sasS'pyver'
p114
S'Python 2.7.10: C:\\Python27\\python.exe (prefix: C:\\Python27)'
p115
sS'session'
p116
g57
(S'sd\x08\x00\x00<div><table><tr><td style="font-weight:bold;vertical-align:top;">auth</td><td style="vertical-align:top;">:</td><td><div><table><tr><td style="font-weight:bold;vertical-align:top;">expiration</td><td style="vertical-align:top;">:</td><td><div>3600</div></td></tr><tr><td style="font-weight:bold;vertical-align:top;">hmac_key</td><td style="vertical-align:top;">:</td><td><div>c4a82bb9-ddca-4b20-b308-e97d90371de4</div></td></tr><tr><td style="font-weight:bold;vertical-align:top;">last_visit</td><td style="vertical-align:top;">:</td><td><div>datetime.datetime(2015, 9, 8, 10, 44, 19, 912000)</div></td></tr><tr><td style="font-weight:bold;vertical-align:top;">remember_me</td><td style="vertical-align:top;">:</td><td><div>False</div></td></tr><tr><td style="font-weight:bold;vertical-align:top;">user</td><td style="vertical-align:top;">:</td><td><div><table><tr><td style="font-weight:bold;vertical-align:top;">email</td><td style="vertical-align:top;">:</td><td><div>tom.natus@jes.be</div></td></tr><tr><td style="font-weight:bold;vertical-align:top;">first_name</td><td style="vertical-align:top;">:</td><td><div>Tom</div></td></tr><tr><td style="font-weight:bold;vertical-align:top;">id</td><td style="vertical-align:top;">:</td><td><div>1L</div></td></tr><tr><td style="font-weight:bold;vertical-align:top;">last_name</td><td style="vertical-align:top;">:</td><td><div>Natus</div></td></tr><tr><td style="font-weight:bold;vertical-align:top;">registration_id</td><td style="vertical-align:top;">:</td><td><div></div></td></tr><tr><td style="font-weight:bold;vertical-align:top;">registration_key</td><td style="vertical-align:top;">:</td><td><div></div></td></tr><tr><td style="font-weight:bold;vertical-align:top;">reset_password_key</td><td style="vertical-align:top;">:</td><td><div></div></td></tr></table></div></td></tr><tr><td style="font-weight:bold;vertical-align:top;">user_groups</td><td style="vertical-align:top;">:</td><td><div><table></table></div></td></tr></table></div></td></tr><tr><td style="font-weight:bold;vertical-align:top;">flash</td><td style="vertical-align:top;">:</td><td><div>None</div></td></tr></table></div>'
tRp117
sS'etype'
p118
S"<type 'exceptions.NameError'>"
p119
sS'date'
p120
S'Tue Sep 08 10:44:19 2015'
p121
sS'response'
p122
g57
(S'sg\x18\x00\x00<div><table><tr><td style="font-weight:bold;vertical-align:top;">body</td><td style="vertical-align:top;">:</td><td><div>&lt;cStringIO.StringO object at 0x0000000004705768&gt;</div></td></tr><tr><td style="font-weight:bold;vertical-align:top;">cookies</td><td style="vertical-align:top;">:</td><td><div><table><tr><td style="font-weight:bold;vertical-align:top;">session_id_yeiregistratieversie2</td><td style="vertical-align:top;">:</td><td><div>127.0.0.1-9a8b5270-36da-4333-86c4-ef1bea5cee1a<table><tr><td style="font-weight:bold;vertical-align:top;">comment</td><td style="vertical-align:top;">:</td><td><div></div></td></tr><tr><td style="font-weight:bold;vertical-align:top;">domain</td><td style="vertical-align:top;">:</td><td><div></div></td></tr><tr><td style="font-weight:bold;vertical-align:top;">expires</td><td style="vertical-align:top;">:</td><td><div></div></td></tr><tr><td style="font-weight:bold;vertical-align:top;">httponly</td><td style="vertical-align:top;">:</td><td><div></div></td></tr><tr><td style="font-weight:bold;vertical-align:top;">max-age</td><td style="vertical-align:top;">:</td><td><div></div></td></tr><tr><td style="font-weight:bold;vertical-align:top;">path</td><td style="vertical-align:top;">:</td><td><div>/</div></td></tr><tr><td style="font-weight:bold;vertical-align:top;">secure</td><td style="vertical-align:top;">:</td><td><div></div></td></tr><tr><td style="font-weight:bold;vertical-align:top;">version</td><td style="vertical-align:top;">:</td><td><div></div></td></tr></table></div></td></tr></table></div></td></tr><tr><td style="font-weight:bold;vertical-align:top;">delimiters</td><td style="vertical-align:top;">:</td><td><div><table><tr><td><div>{{</div></td></tr><tr><td><div>}}</div></td></tr></table></div></td></tr><tr><td style="font-weight:bold;vertical-align:top;">files</td><td style="vertical-align:top;">:</td><td><div><table></table></div></td></tr><tr><td style="font-weight:bold;vertical-align:top;">flash</td><td style="vertical-align:top;">:</td><td><div></div></td></tr><tr><td style="font-weight:bold;vertical-align:top;">form_label_separator</td><td style="vertical-align:top;">:</td><td><div></div></td></tr><tr><td style="font-weight:bold;vertical-align:top;">formstyle</td><td style="vertical-align:top;">:</td><td><div>bootstrap3_inline</div></td></tr><tr><td style="font-weight:bold;vertical-align:top;">generic_patterns</td><td style="vertical-align:top;">:</td><td><div><table><tr><td><div>*</div></td></tr></table></div></td></tr><tr><td style="font-weight:bold;vertical-align:top;">headers</td><td style="vertical-align:top;">:</td><td><div><table><tr><td style="font-weight:bold;vertical-align:top;">X-Powered-By</td><td style="vertical-align:top;">:</td><td><div>web2py</div></td></tr></table></div></td></tr><tr><td style="font-weight:bold;vertical-align:top;">menu</td><td style="vertical-align:top;">:</td><td><div><table></table></div></td></tr><tr><td style="font-weight:bold;vertical-align:top;">meta</td><td style="vertical-align:top;">:</td><td><div><table></table></div></td></tr><tr><td style="font-weight:bold;vertical-align:top;">models_to_run</td><td style="vertical-align:top;">:</td><td><div><table><tr><td><div>^\\w+\\.py$</div></td></tr><tr><td><div>^guest/\\w+\\.py$</div></td></tr><tr><td><div>^guest/new/\\w+\\.py$</div></td></tr></table></div></td></tr><tr><td style="font-weight:bold;vertical-align:top;">postprocessing</td><td style="vertical-align:top;">:</td><td><div><table></table></div></td></tr><tr><td style="font-weight:bold;vertical-align:top;">session_client</td><td style="vertical-align:top;">:</td><td><div>127.0.0.1</div></td></tr><tr><td style="font-weight:bold;vertical-align:top;">session_cookie_compression_level</td><td style="vertical-align:top;">:</td><td><div>None</div></td></tr><tr><td style="font-weight:bold;vertical-align:top;">session_cookie_expires</td><td style="vertical-align:top;">:</td><td><div>None</div></td></tr><tr><td style="font-weight:bold;vertical-align:top;">session_cookie_key</td><td style="vertical-align:top;">:</td><td><div>None</div></td></tr><tr><td style="font-weight:bold;vertical-align:top;">session_data_name</td><td style="vertical-align:top;">:</td><td><div>session_data_yeiregistratieversie2</div></td></tr><tr><td style="font-weight:bold;vertical-align:top;">session_file</td><td style="vertical-align:top;">:</td><td><div>&lt;open file &#x27;C:\\\\Users\\\\Tom\\\\Development\\\\web2py\\\\applications\\\\YEIRegistratieversie2\\\\sessions\\\\121\\\\163\\\\127.0.0.1-9a8b5270-36da-4333-86c4-ef1bea5cee1a&#x27;, mode &#x27;rb+&#x27; at 0x0000000004918F60&gt;</div></td></tr><tr><td style="font-weight:bold;vertical-align:top;">session_filename</td><td style="vertical-align:top;">:</td><td><div>C:\\Users\\Tom\\Development\\web2py\\applications\\YEIRegistratieversie2\\sessions\\127.0.0.1-9a8b5270-36da-4333-86c4-ef1bea5cee1a</div></td></tr><tr><td style="font-weight:bold;vertical-align:top;">session_hash</td><td style="vertical-align:top;">:</td><td><div>85bf7bd3a1a8da6577f2d14e974d6fc0</div></td></tr><tr><td style="font-weight:bold;vertical-align:top;">session_id</td><td style="vertical-align:top;">:</td><td><div>127.0.0.1-9a8b5270-36da-4333-86c4-ef1bea5cee1a</div></td></tr><tr><td style="font-weight:bold;vertical-align:top;">session_id_name</td><td style="vertical-align:top;">:</td><td><div>session_id_yeiregistratieversie2</div></td></tr><tr><td style="font-weight:bold;vertical-align:top;">session_locked</td><td style="vertical-align:top;">:</td><td><div>True</div></td></tr><tr><td style="font-weight:bold;vertical-align:top;">session_masterapp</td><td style="vertical-align:top;">:</td><td><div>YEIRegistratieversie2</div></td></tr><tr><td style="font-weight:bold;vertical-align:top;">session_new</td><td style="vertical-align:top;">:</td><td><div>False</div></td></tr><tr><td style="font-weight:bold;vertical-align:top;">session_storage_type</td><td style="vertical-align:top;">:</td><td><div>file</div></td></tr><tr><td style="font-weight:bold;vertical-align:top;">status</td><td style="vertical-align:top;">:</td><td><div>200</div></td></tr><tr><td style="font-weight:bold;vertical-align:top;">view</td><td style="vertical-align:top;">:</td><td><div>guest/new.html</div></td></tr></table></div>'
tRp123
sS'locals'
p124
(dp125
S'Service'
p126
S"<class 'gluon.tools.Service'>"
p127
sS'OBJECT'
p128
S"<class 'gluon.html.OBJECT'>"
p129
sS'SQLDB'
p130
S"<class 'pydal.base.DAL'>"
p131
sg116
S"<Storage {'_auth_next': None, 'flash': None, 'au...ate]': ['1f976dcf-cc65-4014-9700-db4ee0a72574']}>"
p132
sS'LINK'
p133
S"<class 'gluon.html.LINK'>"
p134
sS'BR'
p135
S"<class 'gluon.html.BR'>"
p136
sS'local_import'
p137
S'<function <lambda>>'
p138
sS'OPTGROUP'
p139
S"<class 'gluon.html.OPTGROUP'>"
p140
sS'LI'
p141
S"<class 'gluon.html.LI'>"
p142
sS'PRE'
p143
S"<class 'gluon.html.PRE'>"
p144
sS'IS_INT_IN_RANGE'
p145
S"<class 'gluon.validators.IS_INT_IN_RANGE'>"
p146
sS'IS_NATIONALNUMBER'
p147
S'<class __restricted__.IS_NATIONALNUMBER>'
p148
sS'IS_LOWER'
p149
S"<class 'gluon.validators.IS_LOWER'>"
p150
sS'IS_STRONG'
p151
S"<class 'gluon.validators.IS_STRONG'>"
p152
sS'cache'
p153
S'<gluon.cache.Cache object>'
p154
sS'IS_IN_DB'
p155
S"<class 'gluon.validators.IS_IN_DB'>"
p156
sS'TAG'
p157
S'<gluon.html.__TAG__ object>'
p158
sS'SQLField'
p159
S"<class 'pydal.objects.Field'>"
p160
sS'mail'
p161
S'<gluon.tools.Mail object>'
p162
sS'BODY'
p163
S"<class 'gluon.html.BODY'>"
p164
sS'IS_DATE_IN_RANGE'
p165
S"<class 'gluon.validators.IS_DATE_IN_RANGE'>"
p166
sS'TH'
p167
S"<class 'gluon.html.TH'>"
p168
sS'URL'
p169
S'<function URL>'
p170
sS'__file__'
p171
S"r'C:\\Users\\Tom\\Development\\web2py\\applications\\YEIRegistratieversie2\\models\\db.py'"
p172
sS'db'
p173
S'<DAL uri="sqlite://storage.sqlite">'
p174
sS'auth'
p175
S'<gluon.tools.Auth object>'
p176
sS'P'
S"<class 'gluon.html.P'>"
p177
sS'TFOOT'
p178
S"<class 'gluon.html.TFOOT'>"
p179
sS'XHTML'
p180
S"<class 'gluon.html.XHTML'>"
p181
sS'datetime'
p182
S"<module 'datetime' (built-in)>"
p183
sS'EMBED'
p184
S"<class 'gluon.html.EMBED'>"
p185
sS'ON'
p186
S'True'
p187
sS'OL'
p188
S"<class 'gluon.html.OL'>"
p189
sS'TEXTAREA'
p190
S"<class 'gluon.html.TEXTAREA'>"
p191
sS'MENU'
p192
S"<class 'gluon.html.MENU'>"
p193
sS'LOAD'
p194
S'<function LOAD>'
p195
sS'CODE'
p196
S"<class 'gluon.html.CODE'>"
p197
sS'HTTP'
p198
S"<class 'gluon.http.HTTP'>"
p199
sS'HR'
p200
S"<class 'gluon.html.HR'>"
p201
sS'IS_DATETIME'
p202
S"<class 'gluon.validators.IS_DATETIME'>"
p203
sS'HEAD'
p204
S"<class 'gluon.html.HEAD'>"
p205
sS'LABEL'
p206
S"<class 'gluon.html.LABEL'>"
p207
sS'CLEANUP'
p208
S"<class 'gluon.validators.CLEANUP'>"
p209
sS'plugins'
p210
S'<gluon.tools.PluginManager object>'
p211
sS'BUTTON'
p212
S"<class 'gluon.html.BUTTON'>"
p213
sS'SELECT'
p214
S"<class 'gluon.html.SELECT'>"
p215
sS'talk_errors'
p216
S'[]'
p217
sS'CENTER'
p218
S"<class 'gluon.html.CENTER'>"
p219
sS'Auth'
p220
S"<class 'gluon.tools.Auth'>"
p221
sS'__builtins__'
p222
S"{'ArithmeticError': <type 'exceptions.ArithmeticError'>, 'AssertionError': <type 'exceptions.AssertionError'>, 'AttributeError': <type 'exceptions.AttributeError'>, 'BaseException': <type 'exceptions.BaseException'>, 'BufferError': <type 'exceptions.BufferError'>, 'BytesWarning': <type 'exceptions.BytesWarning'>, 'DeprecationWarning': <type 'exceptions.DeprecationWarning'>, 'EOFError': <type 'exceptions.EOFError'>, 'Ellipsis': Ellipsis, 'EnvironmentError': <type 'exceptions.EnvironmentError'>, ...}"
p223
sS'HTML'
p224
S"<class 'gluon.html.HTML'>"
p225
sS'SQLFORM'
p226
S"<class 'gluon.sqlhtml.SQLFORM'>"
p227
sS'EM'
p228
S"<class 'gluon.html.EM'>"
p229
sS'redirect'
p230
S'<function redirect>'
p231
sS'FIELDSET'
p232
S"<class 'gluon.html.FIELDSET'>"
p233
sS'IS_EQUAL_TO'
p234
S"<class 'gluon.validators.IS_EQUAL_TO'>"
p235
sS'embed64'
p236
S'<function embed64>'
p237
sS'IS_LIST_OF'
p238
S"<class 'gluon.validators.IS_LIST_OF'>"
p239
sS'__name__'
p240
S"'__restricted__'"
p241
sS'checkNationalNumber'
p242
S'<function checkNationalNumber>'
p243
sS'FORM'
p244
S"<class 'gluon.html.FORM'>"
p245
sS'myconf'
p246
S"{'forms': {'formstyle': 'bootstrap3_inline', 'se...'you@gmail.com', 'server': 'smtp.gmail.com:587'}}"
p247
sS'H2'
p248
S"<class 'gluon.html.H2'>"
p249
sS'H3'
p250
S"<class 'gluon.html.H3'>"
p251
sS'AppConfig'
p252
S'<function AppConfig>'
p253
sS'H1'
p254
S"<class 'gluon.html.H1'>"
p255
sS'H6'
p256
S"<class 'gluon.html.H6'>"
p257
sS'H4'
p258
S"<class 'gluon.html.H4'>"
p259
sS'H5'
p260
S"<class 'gluon.html.H5'>"
p261
sS'UL'
p262
S"<class 'gluon.html.UL'>"
p263
sS'IS_UPPER'
p264
S"<class 'gluon.validators.IS_UPPER'>"
p265
sS'xmlescape'
p266
S'<function xmlescape>'
p267
sS'IS_TIME'
p268
S"<class 'gluon.validators.IS_TIME'>"
p269
sS'OPTION'
p270
S"<class 'gluon.html.OPTION'>"
p271
sS'TITLE'
p272
S"<class 'gluon.html.TITLE'>"
p273
sS'CRYPT'
p274
S"<class 'gluon.validators.CRYPT'>"
p275
sS'IS_EMPTY_OR'
p276
S"<class 'gluon.validators.IS_EMPTY_OR'>"
p277
sS'MARKMIN'
p278
S"<class 'gluon.html.MARKMIN'>"
p279
sS'INPUT'
p280
S"<class 'gluon.html.INPUT'>"
p281
sS'STRONG'
p282
S"<class 'gluon.html.STRONG'>"
p283
sS'COL'
p284
S"<class 'gluon.html.COL'>"
p285
sS'service'
p286
S'<gluon.tools.Service object>'
p287
sS'SCRIPT'
p288
S"<class 'gluon.html.SCRIPT'>"
p289
sS'competence_errors'
p290
S'[]'
p291
sS'TABLE'
p292
S"<class 'gluon.html.TABLE'>"
p293
sS'IS_IPV4'
p294
S"<class 'gluon.validators.IS_IPV4'>"
p295
sS'IS_LENGTH'
p296
S"<class 'gluon.validators.IS_LENGTH'>"
p297
sS'IS_IPV6'
p298
S"<class 'gluon.validators.IS_IPV6'>"
p299
sS'XML'
p300
S"<class 'gluon.html.XML'>"
p301
sS'B'
S"<class 'gluon.html.B'>"
p302
sS'IMG'
p303
S"<class 'gluon.html.IMG'>"
p304
sS'SQLTABLE'
p305
S"<class 'gluon.sqlhtml.SQLTABLE'>"
p306
sS'IS_MATCH'
p307
S"<class 'gluon.validators.IS_MATCH'>"
p308
sS'IS_ALPHANUMERIC'
p309
S"<class 'gluon.validators.IS_ALPHANUMERIC'>"
p310
sS'SPAN'
p311
S"<class 'gluon.html.SPAN'>"
p312
sS'IS_JSON'
p313
S"<class 'gluon.validators.IS_JSON'>"
p314
sS'IS_IPADDRESS'
p315
S"<class 'gluon.validators.IS_IPADDRESS'>"
p316
sS'IS_SLUG'
p317
S"<class 'gluon.validators.IS_SLUG'>"
p318
sS'BEAUTIFY'
p319
S"<class 'gluon.html.BEAUTIFY'>"
p320
sS'META'
p321
S"<class 'gluon.html.META'>"
p322
sS'makeYears'
p323
S'<function makeYears>'
p324
sS'IS_DATE'
p325
S"<class 'gluon.validators.IS_DATE'>"
p326
sS'IS_EMAIL'
p327
S"<class 'gluon.validators.IS_EMAIL'>"
p328
sS'IS_DECIMAL_IN_RANGE'
p329
S"<class 'gluon.validators.IS_DECIMAL_IN_RANGE'>"
p330
sS'IS_NOT_EMPTY'
p331
S"<class 'gluon.validators.IS_NOT_EMPTY'>"
p332
sS'IS_FLOAT_IN_RANGE'
p333
S"<class 'gluon.validators.IS_FLOAT_IN_RANGE'>"
p334
sS'TBODY'
p335
S"<class 'gluon.html.TBODY'>"
p336
sS'CAT'
p337
S"<class 'gluon.html.CAT'>"
p338
sS'Field'
p339
S"<class 'pydal.objects.Field'>"
p340
sS'IS_LIST_OF_EMAILS'
p341
S"<class 'gluon.validators.IS_LIST_OF_EMAILS'>"
p342
sS'DIV'
p343
S"<class 'gluon.html.DIV'>"
p344
sS'LEGEND'
p345
S"<class 'gluon.html.LEGEND'>"
p346
sS'COLGROUP'
p347
S"<class 'gluon.html.COLGROUP'>"
p348
sS'DAL'
p349
S"<class 'pydal.base.DAL'>"
p350
sS'ASSIGNJS'
p351
S'<function ASSIGNJS>'
p352
sS'TR'
p353
S"<class 'gluon.html.TR'>"
p354
sS'__package__'
p355
S'None'
p356
sS'IFRAME'
p357
S"<class 'gluon.html.IFRAME'>"
p358
sS'TD'
p359
S"<class 'gluon.html.TD'>"
p360
sS'PluginManager'
p361
S"<class 'gluon.tools.PluginManager'>"
p362
sS'IS_URL'
p363
S"<class 'gluon.validators.IS_URL'>"
p364
sS'A'
S"<class 'gluon.html.A'>"
p365
sS'STYLE'
p366
S"<class 'gluon.html.STYLE'>"
p367
sS'IS_DATETIME_IN_RANGE'
p368
S"<class 'gluon.validators.IS_DATETIME_IN_RANGE'>"
p369
sS'IS_UPLOAD_FILENAME'
p370
S"<class 'gluon.validators.IS_UPLOAD_FILENAME'>"
p371
sS'IS_IMAGE'
p372
S"<class 'gluon.validators.IS_IMAGE'>"
p373
sS'I'
S"<class 'gluon.html.I'>"
p374
sS'IS_NOT_IN_DB'
p375
S"<class 'gluon.validators.IS_NOT_IN_DB'>"
p376
sg122
S"<Storage {'body': <cStringIO.StringO object at 0...t 0x00000000027D4F28>, 'view': 'guest/new.html'}>"
p377
sS'THEAD'
p378
S"<class 'gluon.html.THEAD'>"
p379
sS'ANY_OF'
p380
S"<class 'gluon.validators.ANY_OF'>"
p381
sS'IS_NULL_OR'
p382
S"<class 'gluon.validators.IS_EMPTY_OR'>"
p383
sg56
S"<Storage {'_vars': None, 'function': 'new', 'coo...\\web2py\\\\applications\\\\YEIRegistratieversie2\\\\'}>"
p384
sS'IS_EXPR'
p385
S"<class 'gluon.validators.IS_EXPR'>"
p386
sS'IS_IN_SET'
p387
S"<class 'gluon.validators.IS_IN_SET'>"
p388
sS'guest_errors'
p389
S'[]'
p390
sS'years'
p391
S'[2015, 2014, 2013, 2012, 2011, 2010, 2009, 2008, 2007, 2006, 2005, 2004, 2003, 2002, 2001, 2000, 1999, 1998, 1997, 1996, ...]'
p392
sS'TT'
p393
S"<class 'gluon.html.TT'>"
p394
sS'T'
S'<gluon.languages.translator object>'
p395
sssS'traceback'
p396
S'Traceback (most recent call last):\n  File "C:\\Users\\Tom\\Development\\web2py\\gluon\\restricted.py", line 227, in restricted\n    exec ccode in environment\n  File "C:\\Users\\Tom\\Development\\web2py\\applications\\YEIRegistratieversie2\\models\\db.py", line 176, in <module>\n    db.guest.national_number.requires=IS_NATIONALNUMBER(national_number)\nNameError: name \'national_number\' is not defined\n'
p397
s.